; Function Attrs: mustprogress uwtable
define void @_ZN7mitsuba6Thread21static_initializationEv() local_unnamed_addr #4 align 2 personality ptr @__gxx_personality_v0 {
  %1 = tail call i32 @pthread_key_create(ptr noundef nonnull @_ZN7mitsubaL14this_thread_idE, ptr noundef null) #3
  %2 = tail call noundef i32 @_ZN7mitsuba4util10core_countEv()
  %3 = sext i32 %2 to i64
  store i64 %3, ptr @_ZN7mitsubaL19global_thread_countE, align 8
  %4 = tail call noalias noundef nonnull dereferenceable(24) ptr @_Znwm(i64 noundef 24) #32
  invoke void @_ZN7mitsuba10MainThreadC2Ev(ptr noundef nonnull align 8 dereferenceable(24) %4)
          to label %5 unwind label %25

5:                                                ; preds = %0
  %6 = tail call align 8 ptr @llvm.threadlocal.address.p0(ptr align 8 @_ZN7mitsubaL4selfE)
  store ptr %4, ptr %6, align 8
  %7 = getelementptr inbounds i8, ptr %4, i64 16
  %8 = load ptr, ptr %7, align 8
  %9 = getelementptr inbounds i8, ptr %8, i64 40
  store i8 1, ptr %9, align 8
  %10 = tail call noalias noundef nonnull dereferenceable(40) ptr @_Znwm(i64 noundef 40) #32
  invoke void @_ZN7mitsuba12FileResolverC1Ev(ptr noundef nonnull align 8 dereferenceable(40) %10)
          to label %11 unwind label %27

11:                                               ; preds = %5
  %12 = load ptr, ptr %6, align 8
  %13 = getelementptr inbounds i8, ptr %12, i64 16
  %14 = load ptr, ptr %13, align 8
  %15 = getelementptr inbounds i8, ptr %14, i64 72
  %16 = load ptr, ptr %15, align 8
  %.not.i = icmp eq ptr %16, %10
  br i1 %.not.i, label %_ZN7mitsuba3refINS_12FileResolverEEaSIS1_EERS2_PS1_.exit, label %17

17:                                               ; preds = %11
  %18 = getelementptr inbounds i8, ptr %10, i64 8
  %19 = atomicrmw add ptr %18, i32 1 seq_cst, align 4
  %.pr.i = load ptr, ptr %15, align 8
  %.not7.i = icmp eq ptr %.pr.i, null
  br i1 %.not7.i, label %21, label %20

20:                                               ; preds = %17
  tail call void @_ZNK7mitsuba6Object7dec_refEb(ptr noundef nonnull align 8 dereferenceable(12) %.pr.i, i1 noundef zeroext true) #3
  br label %21

21:                                               ; preds = %20, %17
  store ptr %10, ptr %15, align 8
  %.pre = load ptr, ptr %6, align 8
  br label %_ZN7mitsuba3refINS_12FileResolverEEaSIS1_EERS2_PS1_.exit

_ZN7mitsuba3refINS_12FileResolverEEaSIS1_EERS2_PS1_.exit: ; preds = %11, %21
  %22 = phi ptr [ %12, %11 ], [ %.pre, %21 ]
  %23 = getelementptr inbounds i8, ptr %22, i64 8
  %24 = atomicrmw add ptr %23, i32 1 seq_cst, align 4
  ret void

25:                                               ; preds = %0
  %26 = landingpad { ptr, i32 }
          cleanup
  br label %29

27:                                               ; preds = %5
  %28 = landingpad { ptr, i32 }
          cleanup
  br label %29

29:                                               ; preds = %27, %25
  %.sink = phi ptr [ %10, %27 ], [ %4, %25 ]
  %.pn = phi { ptr, i32 } [ %28, %27 ], [ %26, %25 ]
  tail call void @_ZdlPv(ptr noundef nonnull %.sink) #31
  resume { ptr, i32 } %.pn
}